target datalayout = "e-m:e-p270:32:32-p271:32:32-p272:64:64-i64:64-i128:128-f80:128-n8:16:32:64-S128"
target triple = "x86_64-pc-linux-gnu"

@eOSSLError = global i64 0, align 8
@.str.28 = private unnamed_addr constant [28 x i8] c"Turning on FIPS mode failed\00", align 1
@.str.29 = private unnamed_addr constant [29 x i8] c"Turning off FIPS mode failed\00", align 1

; Function Attrs: inlinehint nounwind sspstrong willreturn memory(none) uwtable
define internal zeroext i1 @RB_TEST(i64 noundef %0) #9 {
  %2 = alloca i64, align 8
  store i64 %0, ptr %2, align 8, !tbaa !6
  %3 = load i64, ptr %2, align 8, !tbaa !6
  %4 = and i64 %3, -5
  %5 = icmp ne i64 %4, 0
  ret i1 %5
}

; Function Attrs: nounwind sspstrong uwtable
define internal i64 @ossl_fips_mode_set(i64 noundef %0, i64 noundef %1) #0 {
  %3 = alloca i64, align 8
  %4 = alloca i64, align 8
  store i64 %0, ptr %3, align 8, !tbaa !6
  store i64 %1, ptr %4, align 8, !tbaa !6
  %5 = load i64, ptr %4, align 8, !tbaa !6
  %6 = call zeroext i1 @RB_TEST(i64 noundef %5) #27
  br i1 %6, label %7, label %13

7:                                                ; preds = %2
  %8 = call i32 @EVP_default_properties_enable_fips(ptr noundef null, i32 noundef 1)
  %9 = icmp ne i32 %8, 0
  br i1 %9, label %12, label %10

10:                                               ; preds = %7
  %11 = load i64, ptr @eOSSLError, align 8, !tbaa !6
  call void (i64, ptr, ...) @ossl_raise(i64 noundef %11, ptr noundef @.str.28) #23
  unreachable

12:                                               ; preds = %7
  br label %19

13:                                               ; preds = %2
  %14 = call i32 @EVP_default_properties_enable_fips(ptr noundef null, i32 noundef 0)
  %15 = icmp ne i32 %14, 0
  br i1 %15, label %18, label %16

16:                                               ; preds = %13
  %17 = load i64, ptr @eOSSLError, align 8, !tbaa !6
  call void (i64, ptr, ...) @ossl_raise(i64 noundef %17, ptr noundef @.str.29) #23
  unreachable

18:                                               ; preds = %13
  br label %19

19:                                               ; preds = %18, %12
  %20 = load i64, ptr %4, align 8, !tbaa !6
  ret i64 %20
}