; Function Attrs: nounwind sspstrong uwtable
define internal noundef i64 @ossl_fips_mode_set(i64 %0, i64 noundef returned %1) #0 {
  %3 = and i64 %1, -5
  %.not3 = icmp eq i64 %3, 0
  br i1 %.not3, label %8, label %4

4:                                                ; preds = %2
  %5 = tail call i32 @EVP_default_properties_enable_fips(ptr noundef null, i32 noundef 1) #15
  %.not2 = icmp eq i32 %5, 0
  br i1 %.not2, label %6, label %12

6:                                                ; preds = %4
  %7 = load i64, ptr @eOSSLError, align 8, !tbaa !13
  tail call void (i64, ptr, ...) @ossl_raise(i64 noundef %7, ptr noundef nonnull @.str.28) #16
  unreachable

8:                                                ; preds = %2
  %9 = tail call i32 @EVP_default_properties_enable_fips(ptr noundef null, i32 noundef 0) #15
  %.not = icmp eq i32 %9, 0
  br i1 %.not, label %10, label %12

10:                                               ; preds = %8
  %11 = load i64, ptr @eOSSLError, align 8, !tbaa !13
  tail call void (i64, ptr, ...) @ossl_raise(i64 noundef %11, ptr noundef nonnull @.str.29) #16
  unreachable

12:                                               ; preds = %8, %4
  ret i64 %1
}